; Function Attrs: mustprogress uwtable
define void @_ZN7rocksdb21OptimisticTransaction7SetNameERKNSt7__cxx1112basic_stringIcSt11char_traitsIcESaIcEEE(ptr noalias nonnull sret(%"class.rocksdb::Status") align 8 %agg.result, ptr nocapture nonnull readnone align 8 %this, ptr nocapture nonnull readnone align 8 %0) unnamed_addr #2 align 2 {
entry:
  %ref.tmp = alloca %"class.rocksdb::Slice", align 8
  %ref.tmp2 = alloca %"class.rocksdb::Slice", align 8
  store ptr @.str.1, ptr %ref.tmp, align 8
  %size_.i = getelementptr inbounds i8, ptr %ref.tmp, i64 8
  store i64 40, ptr %size_.i, align 8
  store ptr @.str.2, ptr %ref.tmp2, align 8
  %size_.i1 = getelementptr inbounds i8, ptr %ref.tmp2, i64 8
  store i64 0, ptr %size_.i1, align 8
  call void @_ZN7rocksdb6StatusC2ENS0_4CodeENS0_7SubCodeERKNS_5SliceES5_NS0_8SeverityE(ptr noundef nonnull align 8 dereferenceable(16) %agg.result, i8 noundef zeroext 4, i8 noundef zeroext 0, ptr noundef nonnull align 8 dereferenceable(16) %ref.tmp, ptr noundef nonnull align 8 dereferenceable(16) %ref.tmp2, i8 noundef zeroext 0)
  ret void
}